target datalayout = "e-m:e-p270:32:32-p271:32:32-p272:64:64-i64:64-i128:128-f80:128-n8:16:32:64-S128"
target triple = "x86_64-pc-linux-gnu"

%struct.hwloc_linux_backend_data_s = type { ptr, i32, i32, ptr, ptr, i32, i32, i32, i32, i32, i32, i32, %struct.utsname, i32, i32, i32 }
%struct.utsname = type { [65 x i8], [65 x i8], [65 x i8], [65 x i8], [65 x i8], [65 x i8] }

; Function Attrs: nounwind uwtable
define internal void @hwloc_linux_backend_disable(ptr noundef %0) #0 {
  %2 = alloca ptr, align 8
  %3 = alloca ptr, align 8
  store ptr %0, ptr %2, align 8, !tbaa !139
  call void @llvm.lifetime.start.p0(i64 8, ptr %3) #14
  %4 = load ptr, ptr %2, align 8, !tbaa !139
  %5 = getelementptr inbounds nuw i8, ptr %4, i64 80
  store ptr %5, ptr %3, align 8, !tbaa !140
  %6 = load ptr, ptr %3, align 8, !tbaa !140
  %7 = getelementptr inbounds nuw %struct.hwloc_linux_backend_data_s, ptr %6, i32 0, i32 1
  %8 = load i32, ptr %7, align 8, !tbaa !157
  %9 = icmp sge i32 %8, 0
  br i1 %9, label %10, label %18

10:                                               ; preds = %1
  %11 = load ptr, ptr %3, align 8, !tbaa !140
  %12 = getelementptr inbounds nuw %struct.hwloc_linux_backend_data_s, ptr %11, i32 0, i32 0
  %13 = load ptr, ptr %12, align 8, !tbaa !155
  call void @free(ptr noundef %13) #14
  %14 = load ptr, ptr %3, align 8, !tbaa !140
  %15 = getelementptr inbounds nuw %struct.hwloc_linux_backend_data_s, ptr %14, i32 0, i32 1
  %16 = load i32, ptr %15, align 8, !tbaa !157
  %17 = call i32 @close(i32 noundef %16)
  br label %18

18:                                               ; preds = %10, %1
  %19 = load ptr, ptr %3, align 8, !tbaa !140
  %20 = getelementptr inbounds nuw %struct.hwloc_linux_backend_data_s, ptr %19, i32 0, i32 3
  %21 = load ptr, ptr %20, align 8, !tbaa !158
  %22 = icmp ne ptr %21, null
  br i1 %22, label %23, label %28

23:                                               ; preds = %18
  %24 = load ptr, ptr %3, align 8, !tbaa !140
  %25 = getelementptr inbounds nuw %struct.hwloc_linux_backend_data_s, ptr %24, i32 0, i32 3
  %26 = load ptr, ptr %25, align 8, !tbaa !158
  %27 = call ptr @udev_unref(ptr noundef %26)
  br label %28

28:                                               ; preds = %23, %18
  call void @llvm.lifetime.end.p0(i64 8, ptr %3) #14
  ret void
}