; Function Attrs: nounwind uwtable
define internal void @hwloc_linux_backend_disable(ptr noundef readonly captures(none) %0) #0 {
  %2 = getelementptr inbounds nuw i8, ptr %0, i64 88
  %3 = load i32, ptr %2, align 8, !tbaa !127
  %4 = icmp sgt i32 %3, -1
  br i1 %4, label %5, label %10

5:                                                ; preds = %1
  %6 = getelementptr inbounds nuw i8, ptr %0, i64 80
  %7 = load ptr, ptr %6, align 8, !tbaa !126
  tail call void @free(ptr noundef %7) #27
  %8 = load i32, ptr %2, align 8, !tbaa !127
  %9 = tail call i32 @close(i32 noundef %8) #27
  br label %10

10:                                               ; preds = %5, %1
  %11 = getelementptr inbounds nuw i8, ptr %0, i64 96
  %12 = load ptr, ptr %11, align 8, !tbaa !128
  %.not = icmp eq ptr %12, null
  br i1 %.not, label %15, label %13

13:                                               ; preds = %10
  %14 = tail call ptr @udev_unref(ptr noundef nonnull %12) #27
  br label %15

15:                                               ; preds = %13, %10
  ret void
}